target datalayout = "e-m:e-p270:32:32-p271:32:32-p272:64:64-i64:64-i128:128-f80:128-n8:16:32:64-S128"
target triple = "x86_64-pc-linux-gnu"

%struct.Ivy_Obj_t_ = type { i32, i32, i32, i32, ptr, ptr, ptr, ptr, ptr, ptr, ptr, ptr }

; Function Attrs: inlinehint nounwind uwtable
define internal i32 @Ivy_IsComplement(ptr noundef %0) #2 {
  %2 = alloca ptr, align 8
  store ptr %0, ptr %2, align 8, !tbaa !8
  %3 = load ptr, ptr %2, align 8, !tbaa !8
  %4 = ptrtoint ptr %3 to i64
  %5 = and i64 %4, 1
  %6 = trunc i64 %5 to i32
  ret i32 %6
}

; Function Attrs: inlinehint nounwind uwtable
define internal ptr @Ivy_Regular(ptr noundef %0) #2 {
  %2 = alloca ptr, align 8
  store ptr %0, ptr %2, align 8, !tbaa !8
  %3 = load ptr, ptr %2, align 8, !tbaa !8
  %4 = ptrtoint ptr %3 to i64
  %5 = and i64 %4, -2
  %6 = inttoptr i64 %5 to ptr
  ret ptr %6
}

; Function Attrs: nounwind uwtable
define internal i32 @Ivy_InitExor(i32 noundef %0, i32 noundef %1) #0 {
  %3 = alloca i32, align 4
  %4 = alloca i32, align 4
  %5 = alloca i32, align 4
  store i32 %0, ptr %4, align 4, !tbaa !10
  store i32 %1, ptr %5, align 4, !tbaa !10
  %6 = load i32, ptr %4, align 4, !tbaa !10
  %7 = icmp eq i32 %6, 3
  br i1 %7, label %11, label %8

8:                                                ; preds = %2
  %9 = load i32, ptr %5, align 4, !tbaa !10
  %10 = icmp eq i32 %9, 3
  br i1 %10, label %11, label %12

11:                                               ; preds = %8, %2
  store i32 3, ptr %3, align 4
  br label %27

12:                                               ; preds = %8
  %13 = load i32, ptr %4, align 4, !tbaa !10
  %14 = icmp eq i32 %13, 1
  br i1 %14, label %15, label %19

15:                                               ; preds = %12
  %16 = load i32, ptr %5, align 4, !tbaa !10
  %17 = icmp eq i32 %16, 2
  br i1 %17, label %18, label %19

18:                                               ; preds = %15
  store i32 2, ptr %3, align 4
  br label %27

19:                                               ; preds = %15, %12
  %20 = load i32, ptr %4, align 4, !tbaa !10
  %21 = icmp eq i32 %20, 2
  br i1 %21, label %22, label %26

22:                                               ; preds = %19
  %23 = load i32, ptr %5, align 4, !tbaa !10
  %24 = icmp eq i32 %23, 1
  br i1 %24, label %25, label %26

25:                                               ; preds = %22
  store i32 2, ptr %3, align 4
  br label %27

26:                                               ; preds = %22, %19
  store i32 1, ptr %3, align 4
  br label %27

27:                                               ; preds = %26, %25, %18, %11
  %28 = load i32, ptr %3, align 4
  ret i32 %28
}

; Function Attrs: nounwind uwtable
define internal i32 @Ivy_InitAnd(i32 noundef %0, i32 noundef %1) #0 {
  %3 = alloca i32, align 4
  %4 = alloca i32, align 4
  %5 = alloca i32, align 4
  store i32 %0, ptr %4, align 4, !tbaa !10
  store i32 %1, ptr %5, align 4, !tbaa !10
  %6 = load i32, ptr %4, align 4, !tbaa !10
  %7 = icmp eq i32 %6, 1
  br i1 %7, label %11, label %8

8:                                                ; preds = %2
  %9 = load i32, ptr %5, align 4, !tbaa !10
  %10 = icmp eq i32 %9, 1
  br i1 %10, label %11, label %12

11:                                               ; preds = %8, %2
  store i32 1, ptr %3, align 4
  br label %20

12:                                               ; preds = %8
  %13 = load i32, ptr %4, align 4, !tbaa !10
  %14 = icmp eq i32 %13, 3
  br i1 %14, label %18, label %15

15:                                               ; preds = %12
  %16 = load i32, ptr %5, align 4, !tbaa !10
  %17 = icmp eq i32 %16, 3
  br i1 %17, label %18, label %19

18:                                               ; preds = %15, %12
  store i32 3, ptr %3, align 4
  br label %20

19:                                               ; preds = %15
  store i32 2, ptr %3, align 4
  br label %20

20:                                               ; preds = %19, %18, %11
  %21 = load i32, ptr %3, align 4
  ret i32 %21
}

; Function Attrs: nounwind uwtable
define internal i32 @Ivy_InitNotCond(i32 noundef %0, i32 noundef %1) #0 {
  %3 = alloca i32, align 4
  %4 = alloca i32, align 4
  %5 = alloca i32, align 4
  store i32 %0, ptr %4, align 4, !tbaa !10
  store i32 %1, ptr %5, align 4, !tbaa !10
  %6 = load i32, ptr %5, align 4, !tbaa !10
  %7 = icmp eq i32 %6, 0
  br i1 %7, label %8, label %10

8:                                                ; preds = %2
  %9 = load i32, ptr %4, align 4, !tbaa !10
  store i32 %9, ptr %3, align 4
  br label %19

10:                                               ; preds = %2
  %11 = load i32, ptr %4, align 4, !tbaa !10
  %12 = icmp eq i32 %11, 1
  br i1 %12, label %13, label %14

13:                                               ; preds = %10
  store i32 2, ptr %3, align 4
  br label %19

14:                                               ; preds = %10
  %15 = load i32, ptr %4, align 4, !tbaa !10
  %16 = icmp eq i32 %15, 2
  br i1 %16, label %17, label %18

17:                                               ; preds = %14
  store i32 1, ptr %3, align 4
  br label %19

18:                                               ; preds = %14
  store i32 3, ptr %3, align 4
  br label %19

19:                                               ; preds = %18, %17, %13, %8
  %20 = load i32, ptr %3, align 4
  ret i32 %20
}

; Function Attrs: inlinehint nounwind uwtable
define internal i32 @Ivy_ObjInit(ptr noundef %0) #2 {
  %2 = alloca ptr, align 8
  store ptr %0, ptr %2, align 8, !tbaa !8
  %3 = load ptr, ptr %2, align 8, !tbaa !8
  %4 = getelementptr inbounds nuw %struct.Ivy_Obj_t_, ptr %3, i32 0, i32 2
  %5 = load i32, ptr %4, align 8
  %6 = lshr i32 %5, 9
  %7 = and i32 %6, 3
  ret i32 %7
}

; Function Attrs: inlinehint nounwind uwtable
define internal ptr @Ivy_NotCond(ptr noundef %0, i32 noundef %1) #2 {
  %3 = alloca ptr, align 8
  %4 = alloca i32, align 4
  store ptr %0, ptr %3, align 8, !tbaa !8
  store i32 %1, ptr %4, align 4, !tbaa !10
  %5 = load ptr, ptr %3, align 8, !tbaa !8
  %6 = ptrtoint ptr %5 to i64
  %7 = load i32, ptr %4, align 4, !tbaa !10
  %8 = sext i32 %7 to i64
  %9 = xor i64 %6, %8
  %10 = inttoptr i64 %9 to ptr
  ret ptr %10
}

; Function Attrs: inlinehint nounwind uwtable
define internal i32 @Ivy_ObjFaninC1(ptr noundef %0) #2 {
  %2 = alloca ptr, align 8
  store ptr %0, ptr %2, align 8, !tbaa !8
  %3 = load ptr, ptr %2, align 8, !tbaa !8
  %4 = getelementptr inbounds nuw %struct.Ivy_Obj_t_, ptr %3, i32 0, i32 5
  %5 = load ptr, ptr %4, align 8, !tbaa !14
  %6 = call i32 @Ivy_IsComplement(ptr noundef %5)
  ret i32 %6
}

; Function Attrs: inlinehint nounwind uwtable
define internal i32 @Ivy_ObjFaninC0(ptr noundef %0) #2 {
  %2 = alloca ptr, align 8
  store ptr %0, ptr %2, align 8, !tbaa !8
  %3 = load ptr, ptr %2, align 8, !tbaa !8
  %4 = getelementptr inbounds nuw %struct.Ivy_Obj_t_, ptr %3, i32 0, i32 4
  %5 = load ptr, ptr %4, align 8, !tbaa !12
  %6 = call i32 @Ivy_IsComplement(ptr noundef %5)
  ret i32 %6
}

; Function Attrs: inlinehint nounwind uwtable
define internal i32 @Ivy_ObjType(ptr noundef %0) #2 {
  %2 = alloca ptr, align 8
  store ptr %0, ptr %2, align 8, !tbaa !8
  %3 = load ptr, ptr %2, align 8, !tbaa !8
  %4 = getelementptr inbounds nuw %struct.Ivy_Obj_t_, ptr %3, i32 0, i32 2
  %5 = load i32, ptr %4, align 8
  %6 = and i32 %5, 15
  ret i32 %6
}

; Function Attrs: inlinehint nounwind uwtable
define internal ptr @Ivy_ObjFanin1(ptr noundef %0) #2 {
  %2 = alloca ptr, align 8
  store ptr %0, ptr %2, align 8, !tbaa !8
  %3 = load ptr, ptr %2, align 8, !tbaa !8
  %4 = getelementptr inbounds nuw %struct.Ivy_Obj_t_, ptr %3, i32 0, i32 5
  %5 = load ptr, ptr %4, align 8, !tbaa !14
  %6 = call ptr @Ivy_Regular(ptr noundef %5)
  ret ptr %6
}

; Function Attrs: inlinehint nounwind uwtable
define internal i32 @Ivy_ObjIsLatch(ptr noundef %0) #2 {
  %2 = alloca ptr, align 8
  store ptr %0, ptr %2, align 8, !tbaa !8
  %3 = load ptr, ptr %2, align 8, !tbaa !8
  %4 = getelementptr inbounds nuw %struct.Ivy_Obj_t_, ptr %3, i32 0, i32 2
  %5 = load i32, ptr %4, align 8
  %6 = and i32 %5, 15
  %7 = icmp eq i32 %6, 4
  %8 = zext i1 %7 to i32
  ret i32 %8
}

; Function Attrs: inlinehint nounwind uwtable
define internal ptr @Ivy_ObjFanin0(ptr noundef %0) #2 {
  %2 = alloca ptr, align 8
  store ptr %0, ptr %2, align 8, !tbaa !8
  %3 = load ptr, ptr %2, align 8, !tbaa !8
  %4 = getelementptr inbounds nuw %struct.Ivy_Obj_t_, ptr %3, i32 0, i32 4
  %5 = load ptr, ptr %4, align 8, !tbaa !12
  %6 = call ptr @Ivy_Regular(ptr noundef %5)
  ret ptr %6
}

; Function Attrs: nounwind uwtable
define ptr @Ivy_CanonPair_rec(ptr noundef %0, ptr noundef %1) #0 {
  %3 = alloca ptr, align 8
  %4 = alloca ptr, align 8
  %5 = alloca ptr, align 8
  %6 = alloca ptr, align 8
  %7 = alloca ptr, align 8
  %8 = alloca ptr, align 8
  %9 = alloca i32, align 4
  %10 = alloca i32, align 4
  %11 = alloca i32, align 4
  %12 = alloca i32, align 4
  %13 = alloca i32, align 4
  %14 = alloca i32, align 4
  %15 = alloca i32, align 4
  store ptr %0, ptr %4, align 8, !tbaa !3
  store ptr %1, ptr %5, align 8, !tbaa !8
  call void @llvm.lifetime.start.p0(i64 8, ptr %6) #4
  call void @llvm.lifetime.start.p0(i64 8, ptr %7) #4
  call void @llvm.lifetime.start.p0(i64 8, ptr %8) #4
  call void @llvm.lifetime.start.p0(i64 4, ptr %9) #4
  call void @llvm.lifetime.start.p0(i64 4, ptr %10) #4
  call void @llvm.lifetime.start.p0(i64 4, ptr %11) #4
  call void @llvm.lifetime.start.p0(i64 4, ptr %12) #4
  call void @llvm.lifetime.start.p0(i64 4, ptr %13) #4
  call void @llvm.lifetime.start.p0(i64 4, ptr %14) #4
  %16 = load ptr, ptr %5, align 8, !tbaa !8
  %17 = call ptr @Ivy_ObjFanin0(ptr noundef %16)
  %18 = call i32 @Ivy_ObjIsLatch(ptr noundef %17)
  %19 = icmp ne i32 %18, 0
  br i1 %19, label %20, label %25

20:                                               ; preds = %2
  %21 = load ptr, ptr %5, align 8, !tbaa !8
  %22 = call ptr @Ivy_ObjFanin1(ptr noundef %21)
  %23 = call i32 @Ivy_ObjIsLatch(ptr noundef %22)
  %24 = icmp ne i32 %23, 0
  br i1 %24, label %36, label %25

25:                                               ; preds = %20, %2
  %26 = load ptr, ptr %4, align 8, !tbaa !3
  %27 = load ptr, ptr %5, align 8, !tbaa !8
  %28 = call ptr @Ivy_TableLookup(ptr noundef %26, ptr noundef %27)
  store ptr %28, ptr %6, align 8, !tbaa !8
  %29 = icmp ne ptr %28, null
  br i1 %29, label %30, label %32

30:                                               ; preds = %25
  %31 = load ptr, ptr %6, align 8, !tbaa !8
  store ptr %31, ptr %3, align 8
  store i32 1, ptr %15, align 4
  br label %82

32:                                               ; preds = %25
  %33 = load ptr, ptr %4, align 8, !tbaa !3
  %34 = load ptr, ptr %5, align 8, !tbaa !8
  %35 = call ptr @Ivy_ObjCreate(ptr noundef %33, ptr noundef %34)
  store ptr %35, ptr %3, align 8
  store i32 1, ptr %15, align 4
  br label %82

36:                                               ; preds = %20
  %37 = load ptr, ptr %5, align 8, !tbaa !8
  %38 = call ptr @Ivy_ObjFanin0(ptr noundef %37)
  store ptr %38, ptr %7, align 8, !tbaa !8
  %39 = load ptr, ptr %5, align 8, !tbaa !8
  %40 = call ptr @Ivy_ObjFanin1(ptr noundef %39)
  store ptr %40, ptr %8, align 8, !tbaa !8
  %41 = load ptr, ptr %5, align 8, !tbaa !8
  %42 = call i32 @Ivy_ObjType(ptr noundef %41)
  store i32 %42, ptr %14, align 4, !tbaa !10
  %43 = load ptr, ptr %5, align 8, !tbaa !8
  %44 = call i32 @Ivy_ObjFaninC0(ptr noundef %43)
  store i32 %44, ptr %12, align 4, !tbaa !10
  %45 = load ptr, ptr %5, align 8, !tbaa !8
  %46 = call i32 @Ivy_ObjFaninC1(ptr noundef %45)
  store i32 %46, ptr %13, align 4, !tbaa !10
  %47 = load ptr, ptr %4, align 8, !tbaa !3
  %48 = load ptr, ptr %7, align 8, !tbaa !8
  %49 = call ptr @Ivy_ObjFanin0(ptr noundef %48)
  %50 = load i32, ptr %12, align 4, !tbaa !10
  %51 = call ptr @Ivy_NotCond(ptr noundef %49, i32 noundef %50)
  %52 = load ptr, ptr %8, align 8, !tbaa !8
  %53 = call ptr @Ivy_ObjFanin0(ptr noundef %52)
  %54 = load i32, ptr %13, align 4, !tbaa !10
  %55 = call ptr @Ivy_NotCond(ptr noundef %53, i32 noundef %54)
  %56 = load i32, ptr %14, align 4, !tbaa !10
  %57 = call ptr @Ivy_Oper(ptr noundef %47, ptr noundef %51, ptr noundef %55, i32 noundef %56)
  store ptr %57, ptr %6, align 8, !tbaa !8
  %58 = load ptr, ptr %7, align 8, !tbaa !8
  %59 = call i32 @Ivy_ObjInit(ptr noundef %58)
  %60 = load i32, ptr %12, align 4, !tbaa !10
  %61 = call i32 @Ivy_InitNotCond(i32 noundef %59, i32 noundef %60)
  store i32 %61, ptr %10, align 4, !tbaa !10
  %62 = load ptr, ptr %8, align 8, !tbaa !8
  %63 = call i32 @Ivy_ObjInit(ptr noundef %62)
  %64 = load i32, ptr %13, align 4, !tbaa !10
  %65 = call i32 @Ivy_InitNotCond(i32 noundef %63, i32 noundef %64)
  store i32 %65, ptr %11, align 4, !tbaa !10
  %66 = load i32, ptr %14, align 4, !tbaa !10
  %67 = icmp eq i32 %66, 5
  br i1 %67, label %68, label %72

68:                                               ; preds = %36
  %69 = load i32, ptr %10, align 4, !tbaa !10
  %70 = load i32, ptr %11, align 4, !tbaa !10
  %71 = call i32 @Ivy_InitAnd(i32 noundef %69, i32 noundef %70)
  br label %76

72:                                               ; preds = %36
  %73 = load i32, ptr %10, align 4, !tbaa !10
  %74 = load i32, ptr %11, align 4, !tbaa !10
  %75 = call i32 @Ivy_InitExor(i32 noundef %73, i32 noundef %74)
  br label %76

76:                                               ; preds = %72, %68
  %77 = phi i32 [ %71, %68 ], [ %75, %72 ]
  store i32 %77, ptr %9, align 4, !tbaa !10
  %78 = load ptr, ptr %4, align 8, !tbaa !3
  %79 = load ptr, ptr %6, align 8, !tbaa !8
  %80 = load i32, ptr %9, align 4, !tbaa !10
  %81 = call ptr @Ivy_Latch(ptr noundef %78, ptr noundef %79, i32 noundef %80)
  store ptr %81, ptr %3, align 8
  store i32 1, ptr %15, align 4
  br label %82

82:                                               ; preds = %76, %32, %30
  call void @llvm.lifetime.end.p0(i64 4, ptr %14) #4
  call void @llvm.lifetime.end.p0(i64 4, ptr %13) #4
  call void @llvm.lifetime.end.p0(i64 4, ptr %12) #4
  call void @llvm.lifetime.end.p0(i64 4, ptr %11) #4
  call void @llvm.lifetime.end.p0(i64 4, ptr %10) #4
  call void @llvm.lifetime.end.p0(i64 4, ptr %9) #4
  call void @llvm.lifetime.end.p0(i64 8, ptr %8) #4
  call void @llvm.lifetime.end.p0(i64 8, ptr %7) #4
  call void @llvm.lifetime.end.p0(i64 8, ptr %6) #4
  %83 = load ptr, ptr %3, align 8
  ret ptr %83
}