; Function Attrs: nounwind uwtable
define ptr @Ivy_CanonPair_rec(ptr noundef %0, ptr noundef %1) local_unnamed_addr #0 {
  %3 = getelementptr i8, ptr %1, i64 16
  %.val = load ptr, ptr %3, align 8, !tbaa !3
  %4 = ptrtoint ptr %.val to i64
  %5 = and i64 %4, -2
  %6 = inttoptr i64 %5 to ptr
  %7 = getelementptr i8, ptr %6, i64 8
  %.val36 = load i32, ptr %7, align 8
  %8 = and i32 %.val36, 15
  %.not = icmp eq i32 %8, 4
  br i1 %.not, label %9, label %16

9:                                                ; preds = %2
  %10 = getelementptr i8, ptr %1, i64 24
  %.val38 = load ptr, ptr %10, align 8, !tbaa !10
  %11 = ptrtoint ptr %.val38 to i64
  %12 = and i64 %11, -2
  %13 = inttoptr i64 %12 to ptr
  %14 = getelementptr i8, ptr %13, i64 8
  %.val37 = load i32, ptr %14, align 8
  %15 = and i32 %.val37, 15
  %.not55 = icmp eq i32 %15, 4
  br i1 %.not55, label %20, label %16

16:                                               ; preds = %9, %2
  %17 = tail call ptr @Ivy_TableLookup(ptr noundef %0, ptr noundef nonnull %1) #2
  %.not32 = icmp eq ptr %17, null
  br i1 %.not32, label %18, label %59

18:                                               ; preds = %16
  %19 = tail call ptr @Ivy_ObjCreate(ptr noundef %0, ptr noundef nonnull %1) #2
  br label %59

20:                                               ; preds = %9
  %21 = getelementptr i8, ptr %1, i64 8
  %.val40 = load i32, ptr %21, align 8
  %22 = and i32 %.val40, 15
  %23 = getelementptr i8, ptr %6, i64 16
  %.val34 = load ptr, ptr %23, align 8, !tbaa !3
  %24 = ptrtoint ptr %.val34 to i64
  %25 = and i64 %24, -2
  %26 = and i64 %4, 1
  %27 = or disjoint i64 %25, %26
  %28 = inttoptr i64 %27 to ptr
  %29 = getelementptr i8, ptr %13, i64 16
  %.val35 = load ptr, ptr %29, align 8, !tbaa !3
  %30 = ptrtoint ptr %.val35 to i64
  %31 = and i64 %30, -2
  %32 = and i64 %11, 1
  %33 = or disjoint i64 %31, %32
  %34 = inttoptr i64 %33 to ptr
  %35 = tail call ptr @Ivy_Oper(ptr noundef %0, ptr noundef %28, ptr noundef %34, i32 noundef %22) #2
  %.val43 = load i32, ptr %7, align 8
  %36 = lshr i32 %.val43, 9
  %37 = and i32 %36, 3
  %38 = icmp eq i64 %26, 0
  %switch.selectcmp.i = icmp eq i32 %37, 2
  %switch.select.i = select i1 %switch.selectcmp.i, i32 1, i32 3
  %switch.selectcmp6.i = icmp eq i32 %37, 1
  %switch.select7.i = select i1 %switch.selectcmp6.i, i32 2, i32 %switch.select.i
  %.0.i = select i1 %38, i32 %37, i32 %switch.select7.i
  %.val44 = load i32, ptr %14, align 8
  %39 = lshr i32 %.val44, 9
  %40 = and i32 %39, 3
  %41 = icmp eq i64 %32, 0
  %switch.selectcmp.i45 = icmp eq i32 %40, 2
  %switch.select.i46 = select i1 %switch.selectcmp.i45, i32 1, i32 3
  %switch.selectcmp6.i47 = icmp eq i32 %40, 1
  %switch.select7.i48 = select i1 %switch.selectcmp6.i47, i32 2, i32 %switch.select.i46
  %.0.i49 = select i1 %41, i32 %40, i32 %switch.select7.i48
  %42 = icmp eq i32 %22, 5
  br i1 %42, label %43, label %48

43:                                               ; preds = %20
  %44 = icmp eq i32 %.0.i, 1
  %45 = icmp eq i32 %.0.i49, 1
  %or.cond.i = or i1 %44, %45
  %46 = icmp eq i32 %.0.i, 3
  %47 = icmp eq i32 %.0.i49, 3
  %or.cond3.i = or i1 %46, %47
  %..i = select i1 %or.cond3.i, i32 3, i32 2
  %.0.i50 = select i1 %or.cond.i, i32 1, i32 %..i
  br label %Ivy_InitExor.exit

48:                                               ; preds = %20
  %49 = icmp eq i32 %.0.i, 3
  %50 = icmp eq i32 %.0.i49, 3
  %or.cond.i51 = or i1 %49, %50
  br i1 %or.cond.i51, label %Ivy_InitExor.exit, label %51

51:                                               ; preds = %48
  %52 = icmp eq i32 %.0.i, 1
  %53 = icmp eq i32 %.0.i49, 2
  %or.cond3.i52 = and i1 %52, %53
  br i1 %or.cond3.i52, label %Ivy_InitExor.exit, label %54

54:                                               ; preds = %51
  %55 = icmp eq i32 %.0.i, 2
  %56 = icmp eq i32 %.0.i49, 1
  %or.cond5.i = and i1 %55, %56
  %..i53 = select i1 %or.cond5.i, i32 2, i32 1
  br label %Ivy_InitExor.exit

Ivy_InitExor.exit:                                ; preds = %54, %51, %48, %43
  %57 = phi i32 [ %.0.i50, %43 ], [ 3, %48 ], [ 2, %51 ], [ %..i53, %54 ]
  %58 = tail call ptr @Ivy_Latch(ptr noundef %0, ptr noundef %35, i32 noundef %57) #2
  br label %59

59:                                               ; preds = %16, %Ivy_InitExor.exit, %18
  %.0 = phi ptr [ %58, %Ivy_InitExor.exit ], [ %19, %18 ], [ %17, %16 ]
  ret ptr %.0
}